target datalayout = "e-m:e-p270:32:32-p271:32:32-p272:64:64-i64:64-i128:128-f80:128-n8:16:32:64-S128"
target triple = "x86_64-pc-linux-gnu"

%struct.parser_st_hash_type = type { ptr, ptr }
%struct.parser_st_table = type { i8, i8, i8, i32, ptr, i64, ptr, i64, i64, ptr }
%struct.parser_st_table_entry = type { i64, i64, i64 }

; Function Attrs: inlinehint nounwind sspstrong uwtable
define internal void @set_bin(ptr noundef %0, i32 noundef %1, i64 noundef %2, i64 noundef %3) #3 {
  %5 = alloca ptr, align 8
  %6 = alloca i32, align 4
  %7 = alloca i64, align 8
  %8 = alloca i64, align 8
  store ptr %0, ptr %5, align 8, !tbaa !35
  store i32 %1, ptr %6, align 4, !tbaa !16
  store i64 %2, ptr %7, align 8, !tbaa !14
  store i64 %3, ptr %8, align 8, !tbaa !14
  %9 = load i32, ptr %6, align 4, !tbaa !16
  %10 = icmp eq i32 %9, 0
  br i1 %10, label %11, label %17

11:                                               ; preds = %4
  %12 = load i64, ptr %8, align 8, !tbaa !14
  %13 = trunc i64 %12 to i8
  %14 = load ptr, ptr %5, align 8, !tbaa !35
  %15 = load i64, ptr %7, align 8, !tbaa !14
  %16 = getelementptr i8, ptr %14, i64 %15
  store i8 %13, ptr %16, align 1, !tbaa !46
  br label %42

17:                                               ; preds = %4
  %18 = load i32, ptr %6, align 4, !tbaa !16
  %19 = icmp eq i32 %18, 1
  br i1 %19, label %20, label %26

20:                                               ; preds = %17
  %21 = load i64, ptr %8, align 8, !tbaa !14
  %22 = trunc i64 %21 to i16
  %23 = load ptr, ptr %5, align 8, !tbaa !35
  %24 = load i64, ptr %7, align 8, !tbaa !14
  %25 = getelementptr i16, ptr %23, i64 %24
  store i16 %22, ptr %25, align 2, !tbaa !47
  br label %41

26:                                               ; preds = %17
  %27 = load i32, ptr %6, align 4, !tbaa !16
  %28 = icmp eq i32 %27, 2
  br i1 %28, label %29, label %35

29:                                               ; preds = %26
  %30 = load i64, ptr %8, align 8, !tbaa !14
  %31 = trunc i64 %30 to i32
  %32 = load ptr, ptr %5, align 8, !tbaa !35
  %33 = load i64, ptr %7, align 8, !tbaa !14
  %34 = getelementptr i32, ptr %32, i64 %33
  store i32 %31, ptr %34, align 4, !tbaa !16
  br label %40

35:                                               ; preds = %26
  %36 = load i64, ptr %8, align 8, !tbaa !14
  %37 = load ptr, ptr %5, align 8, !tbaa !35
  %38 = load i64, ptr %7, align 8, !tbaa !14
  %39 = getelementptr i64, ptr %37, i64 %38
  store i64 %36, ptr %39, align 8, !tbaa !14
  br label %40

40:                                               ; preds = %35, %29
  br label %41

41:                                               ; preds = %40, %20
  br label %42

42:                                               ; preds = %41, %11
  ret void
}

; Function Attrs: inlinehint nounwind sspstrong uwtable
define internal i32 @get_size_ind(ptr noundef %0) #3 {
  %2 = alloca ptr, align 8
  store ptr %0, ptr %2, align 8, !tbaa !7
  %3 = load ptr, ptr %2, align 8, !tbaa !7
  %4 = getelementptr inbounds nuw %struct.parser_st_table, ptr %3, i32 0, i32 2
  %5 = load i8, ptr %4, align 2, !tbaa !27
  %6 = zext i8 %5 to i32
  ret i32 %6
}

; Function Attrs: inlinehint nounwind sspstrong uwtable
define internal i64 @find_entry(ptr noundef %0, i64 noundef %1, i64 noundef %2) #3 {
  %4 = alloca i64, align 8
  %5 = alloca ptr, align 8
  %6 = alloca i64, align 8
  %7 = alloca i64, align 8
  %8 = alloca i32, align 4
  %9 = alloca i32, align 4
  %10 = alloca i64, align 8
  %11 = alloca i64, align 8
  %12 = alloca ptr, align 8
  %13 = alloca i32, align 4
  %14 = alloca i32, align 4
  store ptr %0, ptr %5, align 8, !tbaa !7
  store i64 %1, ptr %6, align 8, !tbaa !14
  store i64 %2, ptr %7, align 8, !tbaa !14
  call void @llvm.lifetime.start.p0(i64 4, ptr %8) #14
  call void @llvm.lifetime.start.p0(i64 4, ptr %9) #14
  call void @llvm.lifetime.start.p0(i64 8, ptr %10) #14
  call void @llvm.lifetime.start.p0(i64 8, ptr %11) #14
  call void @llvm.lifetime.start.p0(i64 8, ptr %12) #14
  %15 = load ptr, ptr %5, align 8, !tbaa !7
  %16 = getelementptr inbounds nuw %struct.parser_st_table, ptr %15, i32 0, i32 8
  %17 = load i64, ptr %16, align 8, !tbaa !33
  store i64 %17, ptr %11, align 8, !tbaa !14
  %18 = load ptr, ptr %5, align 8, !tbaa !7
  %19 = getelementptr inbounds nuw %struct.parser_st_table, ptr %18, i32 0, i32 9
  %20 = load ptr, ptr %19, align 8, !tbaa !29
  store ptr %20, ptr %12, align 8, !tbaa !40
  %21 = load ptr, ptr %5, align 8, !tbaa !7
  %22 = getelementptr inbounds nuw %struct.parser_st_table, ptr %21, i32 0, i32 7
  %23 = load i64, ptr %22, align 8, !tbaa !34
  store i64 %23, ptr %10, align 8, !tbaa !14
  br label %24

24:                                               ; preds = %86, %3
  %25 = load i64, ptr %10, align 8, !tbaa !14
  %26 = load i64, ptr %11, align 8, !tbaa !14
  %27 = icmp ult i64 %25, %26
  br i1 %27, label %28, label %89

28:                                               ; preds = %24
  br label %29

29:                                               ; preds = %28
  call void @llvm.lifetime.start.p0(i64 4, ptr %13) #14
  %30 = load ptr, ptr %5, align 8, !tbaa !7
  %31 = getelementptr inbounds nuw %struct.parser_st_table, ptr %30, i32 0, i32 3
  %32 = load i32, ptr %31, align 4, !tbaa !30
  store i32 %32, ptr %13, align 4, !tbaa !16
  %33 = load ptr, ptr %12, align 8, !tbaa !40
  %34 = load i64, ptr %10, align 8, !tbaa !14
  %35 = getelementptr %struct.parser_st_table_entry, ptr %33, i64 %34
  %36 = getelementptr inbounds nuw %struct.parser_st_table_entry, ptr %35, i32 0, i32 0
  %37 = load i64, ptr %36, align 8, !tbaa !41
  %38 = load i64, ptr %6, align 8, !tbaa !14
  %39 = icmp eq i64 %37, %38
  br i1 %39, label %40, label %64

40:                                               ; preds = %29
  %41 = load i64, ptr %7, align 8, !tbaa !14
  %42 = load ptr, ptr %12, align 8, !tbaa !40
  %43 = load i64, ptr %10, align 8, !tbaa !14
  %44 = getelementptr %struct.parser_st_table_entry, ptr %42, i64 %43
  %45 = getelementptr inbounds nuw %struct.parser_st_table_entry, ptr %44, i32 0, i32 1
  %46 = load i64, ptr %45, align 8, !tbaa !42
  %47 = icmp eq i64 %41, %46
  br i1 %47, label %62, label %48

48:                                               ; preds = %40
  %49 = load ptr, ptr %5, align 8, !tbaa !7
  %50 = getelementptr inbounds nuw %struct.parser_st_table, ptr %49, i32 0, i32 4
  %51 = load ptr, ptr %50, align 8, !tbaa !18
  %52 = getelementptr inbounds nuw %struct.parser_st_hash_type, ptr %51, i32 0, i32 0
  %53 = load ptr, ptr %52, align 8, !tbaa !43
  %54 = load i64, ptr %7, align 8, !tbaa !14
  %55 = load ptr, ptr %12, align 8, !tbaa !40
  %56 = load i64, ptr %10, align 8, !tbaa !14
  %57 = getelementptr %struct.parser_st_table_entry, ptr %55, i64 %56
  %58 = getelementptr inbounds nuw %struct.parser_st_table_entry, ptr %57, i32 0, i32 1
  %59 = load i64, ptr %58, align 8, !tbaa !42
  %60 = call i32 %53(i64 noundef %54, i64 noundef %59)
  %61 = icmp eq i32 %60, 0
  br label %62

62:                                               ; preds = %48, %40
  %63 = phi i1 [ true, %40 ], [ %61, %48 ]
  br label %64

64:                                               ; preds = %62, %29
  %65 = phi i1 [ false, %29 ], [ %63, %62 ]
  %66 = zext i1 %65 to i32
  store i32 %66, ptr %8, align 4, !tbaa !16
  %67 = load i32, ptr %13, align 4, !tbaa !16
  %68 = load ptr, ptr %5, align 8, !tbaa !7
  %69 = getelementptr inbounds nuw %struct.parser_st_table, ptr %68, i32 0, i32 3
  %70 = load i32, ptr %69, align 4, !tbaa !30
  %71 = icmp ne i32 %67, %70
  %72 = zext i1 %71 to i32
  store i32 %72, ptr %9, align 4, !tbaa !16
  call void @llvm.lifetime.end.p0(i64 4, ptr %13) #14
  br label %73

73:                                               ; preds = %64
  br label %74

74:                                               ; preds = %73
  %75 = load i32, ptr %9, align 4, !tbaa !16
  %76 = sext i32 %75 to i64
  %77 = call i64 @llvm.expect.i64(i64 %76, i64 0)
  %78 = icmp ne i64 %77, 0
  br i1 %78, label %79, label %80

79:                                               ; preds = %74
  store i64 -2, ptr %4, align 8
  store i32 1, ptr %14, align 4
  br label %90

80:                                               ; preds = %74
  %81 = load i32, ptr %8, align 4, !tbaa !16
  %82 = icmp ne i32 %81, 0
  br i1 %82, label %83, label %85

83:                                               ; preds = %80
  %84 = load i64, ptr %10, align 8, !tbaa !14
  store i64 %84, ptr %4, align 8
  store i32 1, ptr %14, align 4
  br label %90

85:                                               ; preds = %80
  br label %86

86:                                               ; preds = %85
  %87 = load i64, ptr %10, align 8, !tbaa !14
  %88 = add i64 %87, 1
  store i64 %88, ptr %10, align 8, !tbaa !14
  br label %24, !llvm.loop !44

89:                                               ; preds = %24
  store i64 -1, ptr %4, align 8
  store i32 1, ptr %14, align 4
  br label %90

90:                                               ; preds = %89, %83, %79
  call void @llvm.lifetime.end.p0(i64 8, ptr %12) #14
  call void @llvm.lifetime.end.p0(i64 8, ptr %11) #14
  call void @llvm.lifetime.end.p0(i64 8, ptr %10) #14
  call void @llvm.lifetime.end.p0(i64 4, ptr %9) #14
  call void @llvm.lifetime.end.p0(i64 4, ptr %8) #14
  %91 = load i64, ptr %4, align 8
  ret i64 %91
}

; Function Attrs: inlinehint nounwind sspstrong uwtable
define internal i64 @do_hash(i64 noundef %0, ptr noundef %1) #3 {
  %3 = alloca i64, align 8
  %4 = alloca ptr, align 8
  %5 = alloca i64, align 8
  store i64 %0, ptr %3, align 8, !tbaa !14
  store ptr %1, ptr %4, align 8, !tbaa !7
  call void @llvm.lifetime.start.p0(i64 8, ptr %5) #14
  %6 = load ptr, ptr %4, align 8, !tbaa !7
  %7 = getelementptr inbounds nuw %struct.parser_st_table, ptr %6, i32 0, i32 4
  %8 = load ptr, ptr %7, align 8, !tbaa !18
  %9 = getelementptr inbounds nuw %struct.parser_st_hash_type, ptr %8, i32 0, i32 1
  %10 = load ptr, ptr %9, align 8, !tbaa !38
  %11 = load i64, ptr %3, align 8, !tbaa !14
  %12 = call i64 %10(i64 noundef %11)
  store i64 %12, ptr %5, align 8, !tbaa !14
  %13 = load i64, ptr %5, align 8, !tbaa !14
  %14 = icmp eq i64 %13, -1
  br i1 %14, label %15, label %16

15:                                               ; preds = %2
  br label %18

16:                                               ; preds = %2
  %17 = load i64, ptr %5, align 8, !tbaa !14
  br label %18

18:                                               ; preds = %16, %15
  %19 = phi i64 [ 0, %15 ], [ %17, %16 ]
  call void @llvm.lifetime.end.p0(i64 8, ptr %5) #14
  ret i64 %19
}

; Function Attrs: nounwind sspstrong uwtable
define dso_local i32 @rb_parser_st_insert2(ptr noundef %0, i64 noundef %1, i64 noundef %2, ptr noundef %3) #0 {
  %5 = alloca i32, align 4
  %6 = alloca ptr, align 8
  %7 = alloca i64, align 8
  %8 = alloca i64, align 8
  %9 = alloca ptr, align 8
  %10 = alloca ptr, align 8
  %11 = alloca i64, align 8
  %12 = alloca i64, align 8
  %13 = alloca i64, align 8
  %14 = alloca i64, align 8
  %15 = alloca i32, align 4
  %16 = alloca i32, align 4
  store ptr %0, ptr %6, align 8, !tbaa !7
  store i64 %1, ptr %7, align 8, !tbaa !14
  store i64 %2, ptr %8, align 8, !tbaa !14
  store ptr %3, ptr %9, align 8, !tbaa !49
  call void @llvm.lifetime.start.p0(i64 8, ptr %10) #14
  call void @llvm.lifetime.start.p0(i64 8, ptr %11) #14
  call void @llvm.lifetime.start.p0(i64 8, ptr %12) #14
  call void @llvm.lifetime.start.p0(i64 8, ptr %13) #14
  call void @llvm.lifetime.start.p0(i64 8, ptr %14) #14
  call void @llvm.lifetime.start.p0(i64 4, ptr %15) #14
  %17 = load i64, ptr %7, align 8, !tbaa !14
  %18 = load ptr, ptr %6, align 8, !tbaa !7
  %19 = call i64 @do_hash(i64 noundef %17, ptr noundef %18)
  store i64 %19, ptr %13, align 8, !tbaa !14
  br label %20

20:                                               ; preds = %60, %37, %4
  %21 = load ptr, ptr %6, align 8, !tbaa !7
  call void @rebuild_table_if_necessary(ptr noundef %21)
  %22 = load ptr, ptr %6, align 8, !tbaa !7
  %23 = getelementptr inbounds nuw %struct.parser_st_table, ptr %22, i32 0, i32 6
  %24 = load ptr, ptr %23, align 8, !tbaa !28
  %25 = icmp eq ptr %24, null
  br i1 %25, label %26, label %50

26:                                               ; preds = %20
  %27 = load ptr, ptr %6, align 8, !tbaa !7
  %28 = load i64, ptr %13, align 8, !tbaa !14
  %29 = load i64, ptr %7, align 8, !tbaa !14
  %30 = call i64 @find_entry(ptr noundef %27, i64 noundef %28, i64 noundef %29)
  store i64 %30, ptr %11, align 8, !tbaa !14
  %31 = load i64, ptr %11, align 8, !tbaa !14
  %32 = icmp eq i64 %31, -2
  %33 = zext i1 %32 to i32
  %34 = sext i32 %33 to i64
  %35 = call i64 @llvm.expect.i64(i64 %34, i64 0)
  %36 = icmp ne i64 %35, 0
  br i1 %36, label %37, label %38

37:                                               ; preds = %26
  br label %20

38:                                               ; preds = %26
  %39 = load i64, ptr %11, align 8, !tbaa !14
  %40 = icmp eq i64 %39, -1
  %41 = zext i1 %40 to i32
  store i32 %41, ptr %15, align 4, !tbaa !16
  %42 = load i32, ptr %15, align 4, !tbaa !16
  %43 = icmp ne i32 %42, 0
  br i1 %43, label %44, label %49

44:                                               ; preds = %38
  %45 = load ptr, ptr %6, align 8, !tbaa !7
  %46 = getelementptr inbounds nuw %struct.parser_st_table, ptr %45, i32 0, i32 5
  %47 = load i64, ptr %46, align 8, !tbaa !32
  %48 = add i64 %47, 1
  store i64 %48, ptr %46, align 8, !tbaa !32
  br label %49

49:                                               ; preds = %44, %38
  store i64 -1, ptr %14, align 8, !tbaa !14
  br label %67

50:                                               ; preds = %20
  %51 = load ptr, ptr %6, align 8, !tbaa !7
  %52 = load i64, ptr %7, align 8, !tbaa !14
  %53 = call i64 @find_table_bin_ptr_and_reserve(ptr noundef %51, ptr noundef %13, i64 noundef %52, ptr noundef %14)
  store i64 %53, ptr %11, align 8, !tbaa !14
  %54 = load i64, ptr %11, align 8, !tbaa !14
  %55 = icmp eq i64 %54, -2
  %56 = zext i1 %55 to i32
  %57 = sext i32 %56 to i64
  %58 = call i64 @llvm.expect.i64(i64 %57, i64 0)
  %59 = icmp ne i64 %58, 0
  br i1 %59, label %60, label %61

60:                                               ; preds = %50
  br label %20

61:                                               ; preds = %50
  %62 = load i64, ptr %11, align 8, !tbaa !14
  %63 = icmp eq i64 %62, -1
  %64 = zext i1 %63 to i32
  store i32 %64, ptr %15, align 4, !tbaa !16
  %65 = load i64, ptr %11, align 8, !tbaa !14
  %66 = sub i64 %65, 2
  store i64 %66, ptr %11, align 8, !tbaa !14
  br label %67

67:                                               ; preds = %61, %49
  %68 = load i32, ptr %15, align 4, !tbaa !16
  %69 = icmp ne i32 %68, 0
  br i1 %69, label %70, label %104

70:                                               ; preds = %67
  %71 = load ptr, ptr %9, align 8, !tbaa !49
  %72 = load i64, ptr %7, align 8, !tbaa !14
  %73 = call i64 %71(i64 noundef %72)
  store i64 %73, ptr %7, align 8, !tbaa !14
  %74 = load ptr, ptr %6, align 8, !tbaa !7
  %75 = getelementptr inbounds nuw %struct.parser_st_table, ptr %74, i32 0, i32 8
  %76 = load i64, ptr %75, align 8, !tbaa !33
  %77 = add i64 %76, 1
  store i64 %77, ptr %75, align 8, !tbaa !33
  store i64 %76, ptr %12, align 8, !tbaa !14
  %78 = load ptr, ptr %6, align 8, !tbaa !7
  %79 = getelementptr inbounds nuw %struct.parser_st_table, ptr %78, i32 0, i32 9
  %80 = load ptr, ptr %79, align 8, !tbaa !29
  %81 = load i64, ptr %12, align 8, !tbaa !14
  %82 = getelementptr %struct.parser_st_table_entry, ptr %80, i64 %81
  store ptr %82, ptr %10, align 8, !tbaa !40
  %83 = load i64, ptr %13, align 8, !tbaa !14
  %84 = load ptr, ptr %10, align 8, !tbaa !40
  %85 = getelementptr inbounds nuw %struct.parser_st_table_entry, ptr %84, i32 0, i32 0
  store i64 %83, ptr %85, align 8, !tbaa !41
  %86 = load i64, ptr %7, align 8, !tbaa !14
  %87 = load ptr, ptr %10, align 8, !tbaa !40
  %88 = getelementptr inbounds nuw %struct.parser_st_table_entry, ptr %87, i32 0, i32 1
  store i64 %86, ptr %88, align 8, !tbaa !42
  %89 = load i64, ptr %8, align 8, !tbaa !14
  %90 = load ptr, ptr %10, align 8, !tbaa !40
  %91 = getelementptr inbounds nuw %struct.parser_st_table_entry, ptr %90, i32 0, i32 2
  store i64 %89, ptr %91, align 8, !tbaa !36
  %92 = load i64, ptr %14, align 8, !tbaa !14
  %93 = icmp ne i64 %92, -1
  br i1 %93, label %94, label %103

94:                                               ; preds = %70
  %95 = load ptr, ptr %6, align 8, !tbaa !7
  %96 = getelementptr inbounds nuw %struct.parser_st_table, ptr %95, i32 0, i32 6
  %97 = load ptr, ptr %96, align 8, !tbaa !28
  %98 = load ptr, ptr %6, align 8, !tbaa !7
  %99 = call i32 @get_size_ind(ptr noundef %98)
  %100 = load i64, ptr %14, align 8, !tbaa !14
  %101 = load i64, ptr %12, align 8, !tbaa !14
  %102 = add i64 %101, 2
  call void @set_bin(ptr noundef %97, i32 noundef %99, i64 noundef %100, i64 noundef %102)
  br label %103

103:                                              ; preds = %94, %70
  store i32 0, ptr %5, align 4
  store i32 1, ptr %16, align 4
  br label %112

104:                                              ; preds = %67
  %105 = load i64, ptr %8, align 8, !tbaa !14
  %106 = load ptr, ptr %6, align 8, !tbaa !7
  %107 = getelementptr inbounds nuw %struct.parser_st_table, ptr %106, i32 0, i32 9
  %108 = load ptr, ptr %107, align 8, !tbaa !29
  %109 = load i64, ptr %11, align 8, !tbaa !14
  %110 = getelementptr %struct.parser_st_table_entry, ptr %108, i64 %109
  %111 = getelementptr inbounds nuw %struct.parser_st_table_entry, ptr %110, i32 0, i32 2
  store i64 %105, ptr %111, align 8, !tbaa !36
  store i32 1, ptr %5, align 4
  store i32 1, ptr %16, align 4
  br label %112

112:                                              ; preds = %104, %103
  call void @llvm.lifetime.end.p0(i64 4, ptr %15) #14
  call void @llvm.lifetime.end.p0(i64 8, ptr %14) #14
  call void @llvm.lifetime.end.p0(i64 8, ptr %13) #14
  call void @llvm.lifetime.end.p0(i64 8, ptr %12) #14
  call void @llvm.lifetime.end.p0(i64 8, ptr %11) #14
  call void @llvm.lifetime.end.p0(i64 8, ptr %10) #14
  %113 = load i32, ptr %5, align 4
  ret i32 %113
}